target datalayout = "e-m:e-p270:32:32-p271:32:32-p272:64:64-i64:64-i128:128-f80:128-n8:16:32:64-S128"
target triple = "x86_64-pc-linux-gnu"

@.str = private unnamed_addr constant [38 x i8] c"../openssl/test/helpers/quictestlib.c\00", align 1
@pcipherbiometh = internal global ptr null, align 8
@.str.41 = private unnamed_addr constant [21 x i8] c"Cipher Packet Filter\00", align 1
@.str.42 = private unnamed_addr constant [4 x i8] c"tmp\00", align 1
@.str.43 = private unnamed_addr constant [45 x i8] c"BIO_meth_set_sendmmsg(tmp, pcipher_sendmmsg)\00", align 1
@.str.44 = private unnamed_addr constant [37 x i8] c"BIO_meth_set_ctrl(tmp, pcipher_ctrl)\00", align 1
@.str.45 = private unnamed_addr constant [43 x i8] c"BIO_meth_set_destroy(tmp, pcipher_destroy)\00", align 1

; Function Attrs: nounwind uwtable
define dso_local ptr @qtest_get_bio_method() #0 {
  %1 = alloca ptr, align 8
  %2 = alloca ptr, align 8
  %3 = alloca i32, align 4
  call void @llvm.lifetime.start.p0(i64 8, ptr %2) #8
  %4 = load ptr, ptr @pcipherbiometh, align 8, !tbaa !69
  %5 = icmp ne ptr %4, null
  br i1 %5, label %6, label %8

6:                                                ; preds = %0
  %7 = load ptr, ptr @pcipherbiometh, align 8, !tbaa !69
  store ptr %7, ptr %1, align 8
  store i32 1, ptr %3, align 4
  br label %41

8:                                                ; preds = %0
  %9 = call ptr @BIO_meth_new(i32 noundef 640, ptr noundef @.str.41)
  store ptr %9, ptr %2, align 8, !tbaa !69
  %10 = load ptr, ptr %2, align 8, !tbaa !69
  %11 = call i32 @test_ptr(ptr noundef @.str, i32 noundef 1202, ptr noundef @.str.42, ptr noundef %10)
  %12 = icmp ne i32 %11, 0
  br i1 %12, label %14, label %13

13:                                               ; preds = %8
  store ptr null, ptr %1, align 8
  store i32 1, ptr %3, align 4
  br label %41

14:                                               ; preds = %8
  %15 = load ptr, ptr %2, align 8, !tbaa !69
  %16 = call i32 @BIO_meth_set_sendmmsg(ptr noundef %15, ptr noundef @pcipher_sendmmsg)
  %17 = icmp ne i32 %16, 0
  %18 = zext i1 %17 to i32
  %19 = call i32 @test_true(ptr noundef @.str, i32 noundef 1205, ptr noundef @.str.43, i32 noundef %18)
  %20 = icmp ne i32 %19, 0
  br i1 %20, label %21, label %35

21:                                               ; preds = %14
  %22 = load ptr, ptr %2, align 8, !tbaa !69
  %23 = call i32 @BIO_meth_set_ctrl(ptr noundef %22, ptr noundef @pcipher_ctrl)
  %24 = icmp ne i32 %23, 0
  %25 = zext i1 %24 to i32
  %26 = call i32 @test_true(ptr noundef @.str, i32 noundef 1206, ptr noundef @.str.44, i32 noundef %25)
  %27 = icmp ne i32 %26, 0
  br i1 %27, label %28, label %35

28:                                               ; preds = %21
  %29 = load ptr, ptr %2, align 8, !tbaa !69
  %30 = call i32 @BIO_meth_set_destroy(ptr noundef %29, ptr noundef @pcipher_destroy)
  %31 = icmp ne i32 %30, 0
  %32 = zext i1 %31 to i32
  %33 = call i32 @test_true(ptr noundef @.str, i32 noundef 1207, ptr noundef @.str.45, i32 noundef %32)
  %34 = icmp ne i32 %33, 0
  br i1 %34, label %36, label %35

35:                                               ; preds = %28, %21, %14
  br label %38

36:                                               ; preds = %28
  %37 = load ptr, ptr %2, align 8, !tbaa !69
  store ptr %37, ptr @pcipherbiometh, align 8, !tbaa !69
  store ptr null, ptr %2, align 8, !tbaa !69
  br label %38

38:                                               ; preds = %36, %35
  %39 = load ptr, ptr %2, align 8, !tbaa !69
  call void @BIO_meth_free(ptr noundef %39)
  %40 = load ptr, ptr @pcipherbiometh, align 8, !tbaa !69
  store ptr %40, ptr %1, align 8
  store i32 1, ptr %3, align 4
  br label %41

41:                                               ; preds = %38, %13, %6
  call void @llvm.lifetime.end.p0(i64 8, ptr %2) #8
  %42 = load ptr, ptr %1, align 8
  ret ptr %42
}