; Function Attrs: nounwind uwtable
define dso_local ptr @qtest_get_bio_method() local_unnamed_addr #0 {
  %1 = load ptr, ptr @pcipherbiometh, align 8, !tbaa !54
  %.not = icmp eq ptr %1, null
  br i1 %.not, label %2, label %23

2:                                                ; preds = %0
  %3 = tail call ptr @BIO_meth_new(i32 noundef 640, ptr noundef nonnull @.str.41) #10
  %4 = tail call i32 @test_ptr(ptr noundef nonnull @.str, i32 noundef 1202, ptr noundef nonnull @.str.42, ptr noundef %3) #10
  %.not9 = icmp eq i32 %4, 0
  br i1 %.not9, label %23, label %5

5:                                                ; preds = %2
  %6 = tail call i32 @BIO_meth_set_sendmmsg(ptr noundef %3, ptr noundef nonnull @pcipher_sendmmsg) #10
  %7 = icmp ne i32 %6, 0
  %8 = zext i1 %7 to i32
  %9 = tail call i32 @test_true(ptr noundef nonnull @.str, i32 noundef 1205, ptr noundef nonnull @.str.43, i32 noundef %8) #10
  %.not10 = icmp eq i32 %9, 0
  br i1 %.not10, label %21, label %10

10:                                               ; preds = %5
  %11 = tail call i32 @BIO_meth_set_ctrl(ptr noundef %3, ptr noundef nonnull @pcipher_ctrl) #10
  %12 = icmp ne i32 %11, 0
  %13 = zext i1 %12 to i32
  %14 = tail call i32 @test_true(ptr noundef nonnull @.str, i32 noundef 1206, ptr noundef nonnull @.str.44, i32 noundef %13) #10
  %.not11 = icmp eq i32 %14, 0
  br i1 %.not11, label %21, label %15

15:                                               ; preds = %10
  %16 = tail call i32 @BIO_meth_set_destroy(ptr noundef %3, ptr noundef nonnull @pcipher_destroy) #10
  %17 = icmp ne i32 %16, 0
  %18 = zext i1 %17 to i32
  %19 = tail call i32 @test_true(ptr noundef nonnull @.str, i32 noundef 1207, ptr noundef nonnull @.str.45, i32 noundef %18) #10
  %.not12 = icmp eq i32 %19, 0
  br i1 %.not12, label %21, label %20

20:                                               ; preds = %15
  store ptr %3, ptr @pcipherbiometh, align 8, !tbaa !54
  br label %21

21:                                               ; preds = %5, %10, %15, %20
  %.0 = phi ptr [ null, %20 ], [ %3, %15 ], [ %3, %10 ], [ %3, %5 ]
  tail call void @BIO_meth_free(ptr noundef %.0) #10
  %22 = load ptr, ptr @pcipherbiometh, align 8, !tbaa !54
  br label %23

23:                                               ; preds = %2, %0, %21
  %.07 = phi ptr [ %22, %21 ], [ %1, %0 ], [ null, %2 ]
  ret ptr %.07
}